; Function Attrs: mustprogress uwtable
define hidden range(i32 0, 2) i32 @hb_ot_layout_get_font_extents(ptr noundef %0, i32 noundef %1, i32 noundef %2, i32 noundef %3, ptr noundef %4) local_unnamed_addr #0 {
  %6 = alloca i32, align 4
  %7 = alloca i32, align 4
  %8 = getelementptr inbounds i8, ptr %0, i64 32
  %9 = load ptr, ptr %8, align 8
  %10 = getelementptr inbounds i8, ptr %9, i64 296
  %11 = tail call noundef ptr @_ZNK16hb_lazy_loader_tIN2OT4BASEE22hb_table_lazy_loader_tIS1_Lj27ELb1EE9hb_face_tLj27E9hb_blob_tE10get_storedEv(ptr noundef nonnull align 8 dereferenceable(8) %10)
  %12 = getelementptr inbounds i8, ptr %11, i64 16
  %13 = load ptr, ptr %12, align 8
  %14 = getelementptr inbounds i8, ptr %11, i64 24
  %15 = load i32, ptr %14, align 8
  %16 = icmp ult i32 %15, 8
  %spec.select.i.i.i.i.i = select i1 %16, ptr @_hb_NullPool, ptr %13
  %17 = call noundef zeroext i1 @_ZNK2OT4BASE11get_min_maxEP9hb_font_t14hb_direction_tjjjPiS4_(ptr noundef nonnull align 1 dereferenceable(12) %spec.select.i.i.i.i.i, ptr noundef %0, i32 noundef %1, i32 noundef %2, i32 noundef %3, i32 noundef 0, ptr noundef nonnull %6, ptr noundef nonnull %7)
  br i1 %17, label %18, label %24

18:                                               ; preds = %5
  %.not = icmp eq ptr %4, null
  br i1 %.not, label %25, label %19

19:                                               ; preds = %18
  %20 = load i32, ptr %7, align 4
  store i32 %20, ptr %4, align 4
  %21 = load i32, ptr %6, align 4
  %22 = getelementptr inbounds i8, ptr %4, i64 4
  store i32 %21, ptr %22, align 4
  %23 = getelementptr inbounds i8, ptr %4, i64 8
  store i32 0, ptr %23, align 4
  br label %25

24:                                               ; preds = %5
  call void @hb_font_get_extents_for_direction(ptr noundef nonnull %0, i32 noundef %1, ptr noundef %4)
  br label %25

25:                                               ; preds = %18, %19, %24
  %.0 = phi i32 [ 0, %24 ], [ 1, %19 ], [ 1, %18 ]
  ret i32 %.0
}